target datalayout = "e-m:e-p270:32:32-p271:32:32-p272:64:64-i64:64-i128:128-f80:128-n8:16:32:64-S128"
target triple = "x86_64-pc-linux-gnu"

%struct.opj_jp2 = type { ptr, ptr, ptr, i32, i32, i32, i32, i32, i32, i32, i32, i32, i32, i32, i32, i32, i32, ptr, ptr, i64, i64, i32, i32, i32, %struct.opj_jp2_color, i32, i8, i8 }
%struct.opj_jp2_color = type { ptr, i32, ptr, ptr, i8 }

; Function Attrs: nounwind uwtable
define internal i32 @opj_jpip_skip_iptr(ptr noundef %0, ptr noundef %1, ptr noundef %2) #0 {
  %4 = alloca i32, align 4
  %5 = alloca ptr, align 8
  %6 = alloca ptr, align 8
  %7 = alloca ptr, align 8
  store ptr %0, ptr %5, align 8, !tbaa !3
  store ptr %1, ptr %6, align 8, !tbaa !8
  store ptr %2, ptr %7, align 8, !tbaa !12
  %8 = load ptr, ptr %6, align 8, !tbaa !8
  %9 = call i64 @opj_stream_tell(ptr noundef %8)
  %10 = load ptr, ptr %5, align 8, !tbaa !3
  %11 = getelementptr inbounds nuw %struct.opj_jp2, ptr %10, i32 0, i32 20
  store i64 %9, ptr %11, align 8, !tbaa !197
  %12 = load ptr, ptr %6, align 8, !tbaa !8
  %13 = load ptr, ptr %7, align 8, !tbaa !12
  %14 = call i64 @opj_stream_skip(ptr noundef %12, i64 noundef 24, ptr noundef %13)
  %15 = icmp ne i64 %14, 24
  br i1 %15, label %16, label %17

16:                                               ; preds = %3
  store i32 0, ptr %4, align 4
  br label %18

17:                                               ; preds = %3
  store i32 1, ptr %4, align 4
  br label %18

18:                                               ; preds = %17, %16
  %19 = load i32, ptr %4, align 4
  ret i32 %19
}