; Function Attrs: nounwind uwtable
define internal range(i32 0, 2) i32 @opj_jpip_skip_iptr(ptr noundef writeonly captures(none) initializes((104, 112)) %0, ptr noundef %1, ptr noundef %2) #0 {
  %4 = tail call i64 @opj_stream_tell(ptr noundef %1) #6
  %5 = getelementptr inbounds nuw i8, ptr %0, i64 104
  store i64 %4, ptr %5, align 8, !tbaa !161
  %6 = tail call i64 @opj_stream_skip(ptr noundef %1, i64 noundef 24, ptr noundef %2) #6
  %.not = icmp eq i64 %6, 24
  %. = zext i1 %.not to i32
  ret i32 %.
}